; ModuleID = '39/1774.c'
source_filename = "39/1774.c"
target datalayout = "e-m:e-p270:32:32-p271:32:32-p272:64:64-i64:64-f80:128-n8:16:32:64-S128"
target triple = "x86_64-pc-linux-gnu"

%struct.student = type { [20 x i8], i32, i32, i8, i8, i32 }

@.str = private unnamed_addr constant [3 x i8] c"%d\00", align 1
@.str.1 = private unnamed_addr constant [15 x i8] c"%s%d%d %c %c%d\00", align 1
@.str.2 = private unnamed_addr constant [10 x i8] c"%s\0A%d\0A%ld\00", align 1

; Function Attrs: noinline nounwind uwtable
define dso_local i32 @main() #0 {
  %1 = alloca i32, align 4
  %2 = alloca i32, align 4
  %3 = alloca i32, align 4
  %4 = alloca [100 x %struct.student], align 16
  %5 = alloca [100 x i32], align 16
  %6 = alloca i32, align 4
  %7 = alloca i64, align 8
  store i32 0, i32* %1, align 4
  %8 = call i32 (i8*, ...) @__isoc99_scanf(i8* getelementptr inbounds ([3 x i8], [3 x i8]* @.str, i64 0, i64 0), i32* %2)
  store i32 0, i32* %3, align 4
  br label %9

9:                                                ; preds = %40, %0
  %10 = load i32, i32* %3, align 4
  %11 = load i32, i32* %2, align 4
  %12 = icmp slt i32 %10, %11
  br i1 %12, label %13, label %43

13:                                               ; preds = %9
  %14 = load i32, i32* %3, align 4
  %15 = sext i32 %14 to i64
  %16 = getelementptr inbounds [100 x %struct.student], [100 x %struct.student]* %4, i64 0, i64 %15
  %17 = getelementptr inbounds %struct.student, %struct.student* %16, i32 0, i32 0
  %18 = getelementptr inbounds [20 x i8], [20 x i8]* %17, i64 0, i64 0
  %19 = load i32, i32* %3, align 4
  %20 = sext i32 %19 to i64
  %21 = getelementptr inbounds [100 x %struct.student], [100 x %struct.student]* %4, i64 0, i64 %20
  %22 = getelementptr inbounds %struct.student, %struct.student* %21, i32 0, i32 1
  %23 = load i32, i32* %3, align 4
  %24 = sext i32 %23 to i64
  %25 = getelementptr inbounds [100 x %struct.student], [100 x %struct.student]* %4, i64 0, i64 %24
  %26 = getelementptr inbounds %struct.student, %struct.student* %25, i32 0, i32 2
  %27 = load i32, i32* %3, align 4
  %28 = sext i32 %27 to i64
  %29 = getelementptr inbounds [100 x %struct.student], [100 x %struct.student]* %4, i64 0, i64 %28
  %30 = getelementptr inbounds %struct.student, %struct.student* %29, i32 0, i32 3
  %31 = load i32, i32* %3, align 4
  %32 = sext i32 %31 to i64
  %33 = getelementptr inbounds [100 x %struct.student], [100 x %struct.student]* %4, i64 0, i64 %32
  %34 = getelementptr inbounds %struct.student, %struct.student* %33, i32 0, i32 4
  %35 = load i32, i32* %3, align 4
  %36 = sext i32 %35 to i64
  %37 = getelementptr inbounds [100 x %struct.student], [100 x %struct.student]* %4, i64 0, i64 %36
  %38 = getelementptr inbounds %struct.student, %struct.student* %37, i32 0, i32 5
  %39 = call i32 (i8*, ...) @__isoc99_scanf(i8* getelementptr inbounds ([15 x i8], [15 x i8]* @.str.1, i64 0, i64 0), i8* %18, i32* %22, i32* %26, i8* %30, i8* %34, i32* %38)
  br label %40

40:                                               ; preds = %13
  %41 = load i32, i32* %3, align 4
  %42 = add nsw i32 %41, 1
  store i32 %42, i32* %3, align 4
  br label %9

43:                                               ; preds = %9
  store i32 0, i32* %6, align 4
  store i64 0, i64* %7, align 8
  store i32 0, i32* %3, align 4
  br label %44

44:                                               ; preds = %166, %43
  %45 = load i32, i32* %3, align 4
  %46 = load i32, i32* %2, align 4
  %47 = icmp slt i32 %45, %46
  br i1 %47, label %48, label %169

48:                                               ; preds = %44
  %49 = load i32, i32* %3, align 4
  %50 = sext i32 %49 to i64
  %51 = getelementptr inbounds [100 x i32], [100 x i32]* %5, i64 0, i64 %50
  store i32 0, i32* %51, align 4
  %52 = load i32, i32* %3, align 4
  %53 = sext i32 %52 to i64
  %54 = getelementptr inbounds [100 x %struct.student], [100 x %struct.student]* %4, i64 0, i64 %53
  %55 = getelementptr inbounds %struct.student, %struct.student* %54, i32 0, i32 1
  %56 = load i32, i32* %55, align 4
  %57 = icmp sgt i32 %56, 80
  br i1 %57, label %58, label %71

58:                                               ; preds = %48
  %59 = load i32, i32* %3, align 4
  %60 = sext i32 %59 to i64
  %61 = getelementptr inbounds [100 x %struct.student], [100 x %struct.student]* %4, i64 0, i64 %60
  %62 = getelementptr inbounds %struct.student, %struct.student* %61, i32 0, i32 5
  %63 = load i32, i32* %62, align 4
  %64 = icmp sge i32 %63, 1
  br i1 %64, label %65, label %71

65:                                               ; preds = %58
  %66 = load i32, i32* %3, align 4
  %67 = sext i32 %66 to i64
  %68 = getelementptr inbounds [100 x i32], [100 x i32]* %5, i64 0, i64 %67
  %69 = load i32, i32* %68, align 4
  %70 = add nsw i32 %69, 8000
  store i32 %70, i32* %68, align 4
  br label %71

71:                                               ; preds = %65, %58, %48
  %72 = load i32, i32* %3, align 4
  %73 = sext i32 %72 to i64
  %74 = getelementptr inbounds [100 x %struct.student], [100 x %struct.student]* %4, i64 0, i64 %73
  %75 = getelementptr inbounds %struct.student, %struct.student* %74, i32 0, i32 1
  %76 = load i32, i32* %75, align 4
  %77 = icmp sgt i32 %76, 85
  br i1 %77, label %78, label %91

78:                                               ; preds = %71
  %79 = load i32, i32* %3, align 4
  %80 = sext i32 %79 to i64
  %81 = getelementptr inbounds [100 x %struct.student], [100 x %struct.student]* %4, i64 0, i64 %80
  %82 = getelementptr inbounds %struct.student, %struct.student* %81, i32 0, i32 2
  %83 = load i32, i32* %82, align 4
  %84 = icmp sgt i32 %83, 80
  br i1 %84, label %85, label %91

85:                                               ; preds = %78
  %86 = load i32, i32* %3, align 4
  %87 = sext i32 %86 to i64
  %88 = getelementptr inbounds [100 x i32], [100 x i32]* %5, i64 0, i64 %87
  %89 = load i32, i32* %88, align 4
  %90 = add nsw i32 %89, 4000
  store i32 %90, i32* %88, align 4
  br label %91

91:                                               ; preds = %85, %78, %71
  %92 = load i32, i32* %3, align 4
  %93 = sext i32 %92 to i64
  %94 = getelementptr inbounds [100 x %struct.student], [100 x %struct.student]* %4, i64 0, i64 %93
  %95 = getelementptr inbounds %struct.student, %struct.student* %94, i32 0, i32 1
  %96 = load i32, i32* %95, align 4
  %97 = icmp sgt i32 %96, 90
  br i1 %97, label %98, label %104

98:                                               ; preds = %91
  %99 = load i32, i32* %3, align 4
  %100 = sext i32 %99 to i64
  %101 = getelementptr inbounds [100 x i32], [100 x i32]* %5, i64 0, i64 %100
  %102 = load i32, i32* %101, align 4
  %103 = add nsw i32 %102, 2000
  store i32 %103, i32* %101, align 4
  br label %104

104:                                              ; preds = %98, %91
  %105 = load i32, i32* %3, align 4
  %106 = sext i32 %105 to i64
  %107 = getelementptr inbounds [100 x %struct.student], [100 x %struct.student]* %4, i64 0, i64 %106
  %108 = getelementptr inbounds %struct.student, %struct.student* %107, i32 0, i32 1
  %109 = load i32, i32* %108, align 4
  %110 = icmp sgt i32 %109, 85
  br i1 %110, label %111, label %125

111:                                              ; preds = %104
  %112 = load i32, i32* %3, align 4
  %113 = sext i32 %112 to i64
  %114 = getelementptr inbounds [100 x %struct.student], [100 x %struct.student]* %4, i64 0, i64 %113
  %115 = getelementptr inbounds %struct.student, %struct.student* %114, i32 0, i32 4
  %116 = load i8, i8* %115, align 1
  %117 = sext i8 %116 to i32
  %118 = icmp eq i32 %117, 89
  br i1 %118, label %119, label %125

119:                                              ; preds = %111
  %120 = load i32, i32* %3, align 4
  %121 = sext i32 %120 to i64
  %122 = getelementptr inbounds [100 x i32], [100 x i32]* %5, i64 0, i64 %121
  %123 = load i32, i32* %122, align 4
  %124 = add nsw i32 %123, 1000
  store i32 %124, i32* %122, align 4
  br label %125

125:                                              ; preds = %119, %111, %104
  %126 = load i32, i32* %3, align 4
  %127 = sext i32 %126 to i64
  %128 = getelementptr inbounds [100 x %struct.student], [100 x %struct.student]* %4, i64 0, i64 %127
  %129 = getelementptr inbounds %struct.student, %struct.student* %128, i32 0, i32 2
  %130 = load i32, i32* %129, align 4
  %131 = icmp sgt i32 %130, 80
  br i1 %131, label %132, label %146

132:                                              ; preds = %125
  %133 = load i32, i32* %3, align 4
  %134 = sext i32 %133 to i64
  %135 = getelementptr inbounds [100 x %struct.student], [100 x %struct.student]* %4, i64 0, i64 %134
  %136 = getelementptr inbounds %struct.student, %struct.student* %135, i32 0, i32 3
  %137 = load i8, i8* %136, align 4
  %138 = sext i8 %137 to i32
  %139 = icmp eq i32 %138, 89
  br i1 %139, label %140, label %146

140:                                              ; preds = %132
  %141 = load i32, i32* %3, align 4
  %142 = sext i32 %141 to i64
  %143 = getelementptr inbounds [100 x i32], [100 x i32]* %5, i64 0, i64 %142
  %144 = load i32, i32* %143, align 4
  %145 = add nsw i32 %144, 850
  store i32 %145, i32* %143, align 4
  br label %146

146:                                              ; preds = %140, %132, %125
  %147 = load i32, i32* %3, align 4
  %148 = sext i32 %147 to i64
  %149 = getelementptr inbounds [100 x i32], [100 x i32]* %5, i64 0, i64 %148
  %150 = load i32, i32* %149, align 4
  %151 = sext i32 %150 to i64
  %152 = load i64, i64* %7, align 8
  %153 = add nsw i64 %152, %151
  store i64 %153, i64* %7, align 8
  %154 = load i32, i32* %3, align 4
  %155 = sext i32 %154 to i64
  %156 = getelementptr inbounds [100 x i32], [100 x i32]* %5, i64 0, i64 %155
  %157 = load i32, i32* %156, align 4
  %158 = load i32, i32* %6, align 4
  %159 = icmp sgt i32 %157, %158
  br i1 %159, label %160, label %165

160:                                              ; preds = %146
  %161 = load i32, i32* %3, align 4
  %162 = sext i32 %161 to i64
  %163 = getelementptr inbounds [100 x i32], [100 x i32]* %5, i64 0, i64 %162
  %164 = load i32, i32* %163, align 4
  store i32 %164, i32* %6, align 4
  br label %165

165:                                              ; preds = %160, %146
  br label %166

166:                                              ; preds = %165
  %167 = load i32, i32* %3, align 4
  %168 = add nsw i32 %167, 1
  store i32 %168, i32* %3, align 4
  br label %44

169:                                              ; preds = %44
  store i32 0, i32* %3, align 4
  br label %170

170:                                              ; preds = %183, %169
  %171 = load i32, i32* %3, align 4
  %172 = load i32, i32* %2, align 4
  %173 = icmp slt i32 %171, %172
  br i1 %173, label %174, label %186

174:                                              ; preds = %170
  %175 = load i32, i32* %3, align 4
  %176 = sext i32 %175 to i64
  %177 = getelementptr inbounds [100 x i32], [100 x i32]* %5, i64 0, i64 %176
  %178 = load i32, i32* %177, align 4
  %179 = load i32, i32* %6, align 4
  %180 = icmp eq i32 %178, %179
  br i1 %180, label %181, label %182

181:                                              ; preds = %174
  br label %186

182:                                              ; preds = %174
  br label %183

183:                                              ; preds = %182
  %184 = load i32, i32* %3, align 4
  %185 = add nsw i32 %184, 1
  store i32 %185, i32* %3, align 4
  br label %170

186:                                              ; preds = %181, %170
  %187 = load i32, i32* %3, align 4
  %188 = sext i32 %187 to i64
  %189 = getelementptr inbounds [100 x %struct.student], [100 x %struct.student]* %4, i64 0, i64 %188
  %190 = getelementptr inbounds %struct.student, %struct.student* %189, i32 0, i32 0
  %191 = getelementptr inbounds [20 x i8], [20 x i8]* %190, i64 0, i64 0
  %192 = load i32, i32* %6, align 4
  %193 = load i64, i64* %7, align 8
  %194 = call i32 (i8*, ...) @printf(i8* getelementptr inbounds ([10 x i8], [10 x i8]* @.str.2, i64 0, i64 0), i8* %191, i32 %192, i64 %193)
  %195 = load i32, i32* %1, align 4
  ret i32 %195
}

declare dso_local i32 @__isoc99_scanf(i8*, ...) #1

declare dso_local i32 @printf(i8*, ...) #1


!llvm.module.flags = !{!0}
!llvm.ident = !{!1}

!0 = !{i32 1, !"wchar_size", i32 4}
!1 = !{!"clang version 10.0.0-4ubuntu1 "}
